; Function Attrs: mustprogress nounwind uwtable
define hidden void @_ZN19OpenColorIO_v2_5dev18CTFReaderMatrixEltD2Ev(ptr noundef nonnull align 8 dereferenceable(136) initializes((0, 8), (104, 112)) %0) unnamed_addr #3 align 2 personality ptr @__gxx_personality_v0 {
  store ptr getelementptr inbounds nuw inrange(-16, 104) (i8, ptr @_ZTVN19OpenColorIO_v2_5dev18CTFReaderMatrixEltE, i64 16), ptr %0, align 8, !tbaa !9
  %2 = getelementptr inbounds nuw i8, ptr %0, i64 104
  store ptr getelementptr inbounds nuw inrange(-16, 40) (i8, ptr @_ZTVN19OpenColorIO_v2_5dev18CTFReaderMatrixEltE, i64 136), ptr %2, align 8, !tbaa !9
  %3 = getelementptr inbounds nuw i8, ptr %0, i64 128
  %4 = load ptr, ptr %3, align 8, !tbaa !33
  %.not.i.i = icmp eq ptr %4, null
  br i1 %.not.i.i, label %_ZNSt12__shared_ptrIN19OpenColorIO_v2_5dev12MatrixOpDataELN9__gnu_cxx12_Lock_policyE2EED2Ev.exit, label %5

5:                                                ; preds = %1
  %6 = getelementptr inbounds nuw i8, ptr %4, i64 8
  %7 = load atomic i64, ptr %6 acquire, align 8
  %8 = icmp eq i64 %7, 4294967297
  %9 = trunc i64 %7 to i32
  br i1 %8, label %10, label %18

10:                                               ; preds = %5
  store i32 0, ptr %6, align 8, !tbaa !26
  %11 = getelementptr inbounds nuw i8, ptr %4, i64 12
  store i32 0, ptr %11, align 4, !tbaa !31
  %12 = load ptr, ptr %4, align 8, !tbaa !9
  %13 = getelementptr inbounds nuw i8, ptr %12, i64 16
  %14 = load ptr, ptr %13, align 8
  tail call void %14(ptr noundef nonnull align 8 dereferenceable(16) %4) #33
  %15 = load ptr, ptr %4, align 8, !tbaa !9
  %16 = getelementptr inbounds nuw i8, ptr %15, i64 24
  %17 = load ptr, ptr %16, align 8
  tail call void %17(ptr noundef nonnull align 8 dereferenceable(16) %4) #33
  br label %_ZNSt12__shared_ptrIN19OpenColorIO_v2_5dev12MatrixOpDataELN9__gnu_cxx12_Lock_policyE2EED2Ev.exit

18:                                               ; preds = %5
  %19 = load i8, ptr @__libc_single_threaded, align 1, !tbaa !34
  %.not.i.i.i = icmp eq i8 %19, 0
  br i1 %.not.i.i.i, label %22, label %20

20:                                               ; preds = %18
  %21 = add nsw i32 %9, -1
  store i32 %21, ptr %6, align 4, !tbaa !35
  br label %_ZN9__gnu_cxx27__exchange_and_add_dispatchEPii.exit.i.i.i

22:                                               ; preds = %18
  %23 = atomicrmw volatile add ptr %6, i32 -1 acq_rel, align 4
  br label %_ZN9__gnu_cxx27__exchange_and_add_dispatchEPii.exit.i.i.i

_ZN9__gnu_cxx27__exchange_and_add_dispatchEPii.exit.i.i.i: ; preds = %22, %20
  %.0.i.i.i.i = phi i32 [ %9, %20 ], [ %23, %22 ]
  %24 = icmp eq i32 %.0.i.i.i.i, 1
  br i1 %24, label %25, label %_ZNSt12__shared_ptrIN19OpenColorIO_v2_5dev12MatrixOpDataELN9__gnu_cxx12_Lock_policyE2EED2Ev.exit, !prof !36

25:                                               ; preds = %_ZN9__gnu_cxx27__exchange_and_add_dispatchEPii.exit.i.i.i
  tail call void @_ZNSt16_Sp_counted_baseILN9__gnu_cxx12_Lock_policyE2EE24_M_release_last_use_coldEv(ptr noundef nonnull align 8 dereferenceable(16) %4) #33
  br label %_ZNSt12__shared_ptrIN19OpenColorIO_v2_5dev12MatrixOpDataELN9__gnu_cxx12_Lock_policyE2EED2Ev.exit

_ZNSt12__shared_ptrIN19OpenColorIO_v2_5dev12MatrixOpDataELN9__gnu_cxx12_Lock_policyE2EED2Ev.exit: ; preds = %1, %10, %_ZN9__gnu_cxx27__exchange_and_add_dispatchEPii.exit.i.i.i, %25
  store ptr getelementptr inbounds nuw inrange(-16, 88) (i8, ptr @_ZTVN19OpenColorIO_v2_5dev14CTFReaderOpEltE, i64 16), ptr %0, align 8, !tbaa !9
  %26 = getelementptr inbounds nuw i8, ptr %0, i64 88
  %27 = load ptr, ptr %26, align 8, !tbaa !33
  %.not.i.i.i1 = icmp eq ptr %27, null
  br i1 %.not.i.i.i1, label %_ZN19OpenColorIO_v2_5dev14CTFReaderOpEltD2Ev.exit, label %28

28:                                               ; preds = %_ZNSt12__shared_ptrIN19OpenColorIO_v2_5dev12MatrixOpDataELN9__gnu_cxx12_Lock_policyE2EED2Ev.exit
  %29 = getelementptr inbounds nuw i8, ptr %27, i64 8
  %30 = load atomic i64, ptr %29 acquire, align 8
  %31 = icmp eq i64 %30, 4294967297
  %32 = trunc i64 %30 to i32
  br i1 %31, label %33, label %41

33:                                               ; preds = %28
  store i32 0, ptr %29, align 8, !tbaa !26
  %34 = getelementptr inbounds nuw i8, ptr %27, i64 12
  store i32 0, ptr %34, align 4, !tbaa !31
  %35 = load ptr, ptr %27, align 8, !tbaa !9
  %36 = getelementptr inbounds nuw i8, ptr %35, i64 16
  %37 = load ptr, ptr %36, align 8
  tail call void %37(ptr noundef nonnull align 8 dereferenceable(16) %27) #33
  %38 = load ptr, ptr %27, align 8, !tbaa !9
  %39 = getelementptr inbounds nuw i8, ptr %38, i64 24
  %40 = load ptr, ptr %39, align 8
  tail call void %40(ptr noundef nonnull align 8 dereferenceable(16) %27) #33
  br label %_ZN19OpenColorIO_v2_5dev14CTFReaderOpEltD2Ev.exit

41:                                               ; preds = %28
  %42 = load i8, ptr @__libc_single_threaded, align 1, !tbaa !34
  %.not.i.i.i.i = icmp eq i8 %42, 0
  br i1 %.not.i.i.i.i, label %45, label %43

43:                                               ; preds = %41
  %44 = add nsw i32 %32, -1
  store i32 %44, ptr %29, align 4, !tbaa !35
  br label %_ZN9__gnu_cxx27__exchange_and_add_dispatchEPii.exit.i.i.i.i

45:                                               ; preds = %41
  %46 = atomicrmw volatile add ptr %29, i32 -1 acq_rel, align 4
  br label %_ZN9__gnu_cxx27__exchange_and_add_dispatchEPii.exit.i.i.i.i

_ZN9__gnu_cxx27__exchange_and_add_dispatchEPii.exit.i.i.i.i: ; preds = %45, %43
  %.0.i.i.i.i.i = phi i32 [ %32, %43 ], [ %46, %45 ]
  %47 = icmp eq i32 %.0.i.i.i.i.i, 1
  br i1 %47, label %48, label %_ZN19OpenColorIO_v2_5dev14CTFReaderOpEltD2Ev.exit, !prof !36

48:                                               ; preds = %_ZN9__gnu_cxx27__exchange_and_add_dispatchEPii.exit.i.i.i.i
  tail call void @_ZNSt16_Sp_counted_baseILN9__gnu_cxx12_Lock_policyE2EE24_M_release_last_use_coldEv(ptr noundef nonnull align 8 dereferenceable(16) %27) #33
  br label %_ZN19OpenColorIO_v2_5dev14CTFReaderOpEltD2Ev.exit

_ZN19OpenColorIO_v2_5dev14CTFReaderOpEltD2Ev.exit: ; preds = %_ZNSt12__shared_ptrIN19OpenColorIO_v2_5dev12MatrixOpDataELN9__gnu_cxx12_Lock_policyE2EED2Ev.exit, %33, %_ZN9__gnu_cxx27__exchange_and_add_dispatchEPii.exit.i.i.i.i, %48
  tail call void @_ZN19OpenColorIO_v2_5dev16XmlReaderElementD2Ev(ptr noundef nonnull align 8 dereferenceable(104) %0) #33
  ret void
}